; ModuleID = '8/1076.c'
source_filename = "8/1076.c"
target datalayout = "e-m:e-p270:32:32-p271:32:32-p272:64:64-i64:64-f80:128-n8:16:32:64-S128"
target triple = "x86_64-pc-linux-gnu"

@.str = private unnamed_addr constant [3 x i8] c"%d\00", align 1
@.str.1 = private unnamed_addr constant [4 x i8] c"%d \00", align 1
@n = common dso_local global i32 0, align 4
@m = common dso_local global i32 0, align 4

; Function Attrs: noinline nounwind uwtable
define dso_local i32* @pfCompare(i8* %0, i8* %1) #0 {
  %3 = alloca i8*, align 8
  %4 = alloca i8*, align 8
  store i8* %0, i8** %3, align 8
  store i8* %1, i8** %4, align 8
  %5 = load i8*, i8** %3, align 8
  %6 = bitcast i8* %5 to i32*
  %7 = load i32, i32* %6, align 4
  %8 = load i8*, i8** %4, align 8
  %9 = bitcast i8* %8 to i32*
  %10 = load i32, i32* %9, align 4
  %11 = sub nsw i32 %7, %10
  %12 = sext i32 %11 to i64
  %13 = inttoptr i64 %12 to i32*
  ret i32* %13
}

; Function Attrs: noinline nounwind uwtable
define dso_local i32 @shuru(i32 %0, i32 %1) #0 {
  %3 = alloca i32, align 4
  %4 = alloca i32, align 4
  %5 = alloca i32, align 4
  %6 = alloca i32, align 4
  %7 = alloca i32*, align 8
  %8 = alloca i32*, align 8
  %9 = alloca i32*, align 8
  store i32 %0, i32* %4, align 4
  store i32 %1, i32* %5, align 4
  %10 = call i32 (i8*, ...) @__isoc99_scanf(i8* getelementptr inbounds ([3 x i8], [3 x i8]* @.str, i64 0, i64 0), i32* %4)
  %11 = call i32 (i8*, ...) @__isoc99_scanf(i8* getelementptr inbounds ([3 x i8], [3 x i8]* @.str, i64 0, i64 0), i32* %5)
  %12 = load i32, i32* %4, align 4
  %13 = sext i32 %12 to i64
  %14 = mul i64 %13, 4
  %15 = call noalias i8* @malloc(i64 %14) #3
  %16 = bitcast i8* %15 to i32*
  store i32* %16, i32** %7, align 8
  store i32 0, i32* %6, align 4
  br label %17

17:                                               ; preds = %28, %2
  %18 = load i32, i32* %6, align 4
  %19 = load i32, i32* %4, align 4
  %20 = sub nsw i32 %19, 1
  %21 = icmp sle i32 %18, %20
  br i1 %21, label %22, label %31

22:                                               ; preds = %17
  %23 = load i32*, i32** %7, align 8
  %24 = load i32, i32* %6, align 4
  %25 = sext i32 %24 to i64
  %26 = getelementptr inbounds i32, i32* %23, i64 %25
  %27 = call i32 (i8*, ...) @__isoc99_scanf(i8* getelementptr inbounds ([3 x i8], [3 x i8]* @.str, i64 0, i64 0), i32* %26)
  br label %28

28:                                               ; preds = %22
  %29 = load i32, i32* %6, align 4
  %30 = add nsw i32 %29, 1
  store i32 %30, i32* %6, align 4
  br label %17

31:                                               ; preds = %17
  %32 = load i32, i32* %5, align 4
  %33 = sext i32 %32 to i64
  %34 = mul i64 %33, 4
  %35 = call noalias i8* @malloc(i64 %34) #3
  %36 = bitcast i8* %35 to i32*
  store i32* %36, i32** %8, align 8
  store i32 0, i32* %6, align 4
  br label %37

37:                                               ; preds = %48, %31
  %38 = load i32, i32* %6, align 4
  %39 = load i32, i32* %5, align 4
  %40 = sub nsw i32 %39, 1
  %41 = icmp sle i32 %38, %40
  br i1 %41, label %42, label %51

42:                                               ; preds = %37
  %43 = load i32*, i32** %8, align 8
  %44 = load i32, i32* %6, align 4
  %45 = sext i32 %44 to i64
  %46 = getelementptr inbounds i32, i32* %43, i64 %45
  %47 = call i32 (i8*, ...) @__isoc99_scanf(i8* getelementptr inbounds ([3 x i8], [3 x i8]* @.str, i64 0, i64 0), i32* %46)
  br label %48

48:                                               ; preds = %42
  %49 = load i32, i32* %6, align 4
  %50 = add nsw i32 %49, 1
  store i32 %50, i32* %6, align 4
  br label %37

51:                                               ; preds = %37
  %52 = load i32*, i32** %7, align 8
  %53 = bitcast i32* %52 to i8*
  %54 = load i32, i32* %4, align 4
  %55 = sext i32 %54 to i64
  call void @qsort(i8* %53, i64 %55, i64 4, i32 (i8*, i8*)* bitcast (i32* (i8*, i8*)* @pfCompare to i32 (i8*, i8*)*))
  %56 = load i32*, i32** %8, align 8
  %57 = bitcast i32* %56 to i8*
  %58 = load i32, i32* %5, align 4
  %59 = sext i32 %58 to i64
  call void @qsort(i8* %57, i64 %59, i64 4, i32 (i8*, i8*)* bitcast (i32* (i8*, i8*)* @pfCompare to i32 (i8*, i8*)*))
  %60 = load i32, i32* %4, align 4
  %61 = load i32, i32* %5, align 4
  %62 = add nsw i32 %60, %61
  %63 = sext i32 %62 to i64
  %64 = mul i64 %63, 4
  %65 = call noalias i8* @malloc(i64 %64) #3
  %66 = bitcast i8* %65 to i32*
  store i32* %66, i32** %9, align 8
  store i32 0, i32* %6, align 4
  br label %67

67:                                               ; preds = %82, %51
  %68 = load i32, i32* %6, align 4
  %69 = load i32, i32* %4, align 4
  %70 = sub nsw i32 %69, 1
  %71 = icmp sle i32 %68, %70
  br i1 %71, label %72, label %85

72:                                               ; preds = %67
  %73 = load i32*, i32** %7, align 8
  %74 = load i32, i32* %6, align 4
  %75 = sext i32 %74 to i64
  %76 = getelementptr inbounds i32, i32* %73, i64 %75
  %77 = load i32, i32* %76, align 4
  %78 = load i32*, i32** %9, align 8
  %79 = load i32, i32* %6, align 4
  %80 = sext i32 %79 to i64
  %81 = getelementptr inbounds i32, i32* %78, i64 %80
  store i32 %77, i32* %81, align 4
  br label %82

82:                                               ; preds = %72
  %83 = load i32, i32* %6, align 4
  %84 = add nsw i32 %83, 1
  store i32 %84, i32* %6, align 4
  br label %67

85:                                               ; preds = %67
  store i32 0, i32* %6, align 4
  br label %86

86:                                               ; preds = %103, %85
  %87 = load i32, i32* %6, align 4
  %88 = load i32, i32* %5, align 4
  %89 = sub nsw i32 %88, 1
  %90 = icmp sle i32 %87, %89
  br i1 %90, label %91, label %106

91:                                               ; preds = %86
  %92 = load i32*, i32** %8, align 8
  %93 = load i32, i32* %6, align 4
  %94 = sext i32 %93 to i64
  %95 = getelementptr inbounds i32, i32* %92, i64 %94
  %96 = load i32, i32* %95, align 4
  %97 = load i32*, i32** %9, align 8
  %98 = load i32, i32* %4, align 4
  %99 = load i32, i32* %6, align 4
  %100 = add nsw i32 %98, %99
  %101 = sext i32 %100 to i64
  %102 = getelementptr inbounds i32, i32* %97, i64 %101
  store i32 %96, i32* %102, align 4
  br label %103

103:                                              ; preds = %91
  %104 = load i32, i32* %6, align 4
  %105 = add nsw i32 %104, 1
  store i32 %105, i32* %6, align 4
  br label %86

106:                                              ; preds = %86
  store i32 0, i32* %6, align 4
  br label %107

107:                                              ; preds = %121, %106
  %108 = load i32, i32* %6, align 4
  %109 = load i32, i32* %4, align 4
  %110 = load i32, i32* %5, align 4
  %111 = add nsw i32 %109, %110
  %112 = sub nsw i32 %111, 2
  %113 = icmp sle i32 %108, %112
  br i1 %113, label %114, label %124

114:                                              ; preds = %107
  %115 = load i32*, i32** %9, align 8
  %116 = load i32, i32* %6, align 4
  %117 = sext i32 %116 to i64
  %118 = getelementptr inbounds i32, i32* %115, i64 %117
  %119 = load i32, i32* %118, align 4
  %120 = call i32 (i8*, ...) @printf(i8* getelementptr inbounds ([4 x i8], [4 x i8]* @.str.1, i64 0, i64 0), i32 %119)
  br label %121

121:                                              ; preds = %114
  %122 = load i32, i32* %6, align 4
  %123 = add nsw i32 %122, 1
  store i32 %123, i32* %6, align 4
  br label %107

124:                                              ; preds = %107
  %125 = load i32*, i32** %9, align 8
  %126 = load i32, i32* %4, align 4
  %127 = load i32, i32* %5, align 4
  %128 = add nsw i32 %126, %127
  %129 = sub nsw i32 %128, 1
  %130 = sext i32 %129 to i64
  %131 = getelementptr inbounds i32, i32* %125, i64 %130
  %132 = load i32, i32* %131, align 4
  %133 = call i32 (i8*, ...) @printf(i8* getelementptr inbounds ([3 x i8], [3 x i8]* @.str, i64 0, i64 0), i32 %132)
  %134 = load i32, i32* %3, align 4
  ret i32 %134
}

declare dso_local i32 @__isoc99_scanf(i8*, ...) #1

; Function Attrs: nounwind
declare dso_local noalias i8* @malloc(i64) #2

declare dso_local void @qsort(i8*, i64, i64, i32 (i8*, i8*)*) #1

declare dso_local i32 @printf(i8*, ...) #1

; Function Attrs: noinline nounwind uwtable
define dso_local i32 @main() #0 {
  %1 = load i32, i32* @n, align 4
  %2 = load i32, i32* @m, align 4
  %3 = call i32 @shuru(i32 %1, i32 %2)
  ret i32 0
}


!llvm.module.flags = !{!0}
!llvm.ident = !{!1}

!0 = !{i32 1, !"wchar_size", i32 4}
!1 = !{!"clang version 10.0.0-4ubuntu1 "}
